; Function Attrs: mustprogress nounwind uwtable
define internal fastcc { i64, i32 } @_ZL17getIntImmCostImplRKN4llvm10DataLayoutEPKNS_14RISCVSubtargetERKNS_5APIntEPNS_4TypeENS_19TargetTransformInfo14TargetCostKindEb(ptr noundef nonnull align 8 dereferenceable(512) %0, ptr noundef %1, ptr noundef nonnull align 8 dereferenceable(12) %2, ptr noundef %3, i1 noundef zeroext %4) unnamed_addr #0 {
  %6 = alloca %"class.llvm::TypeSize", align 8
  %7 = getelementptr inbounds nuw i8, ptr %2, i64 8
  %8 = load i32, ptr %7, align 8
  %9 = icmp ult i32 %8, 65
  br i1 %9, label %_ZNK4llvm5APInteqEm.exit, label %_ZNK4llvm5APInt13getActiveBitsEv.exit.i

_ZNK4llvm5APInt13getActiveBitsEv.exit.i:          ; preds = %5
  %10 = tail call noundef i32 @_ZNK4llvm5APInt25countLeadingZerosSlowCaseEv(ptr noundef nonnull align 8 dereferenceable(12) %2) #22
  %11 = sub i32 %8, %10
  %12 = icmp ult i32 %11, 65
  br i1 %12, label %_ZNK4llvm5APInteqEm.exit, label %_ZNK4llvm5APInteqEm.exit.thread

_ZNK4llvm5APInteqEm.exit:                         ; preds = %5, %_ZNK4llvm5APInt13getActiveBitsEv.exit.i
  %13 = load ptr, ptr %2, align 8
  %.0.in.i.i = select i1 %9, ptr %2, ptr %13
  %.0.i.i = load i64, ptr %.0.in.i.i, align 8
  %14 = icmp eq i64 %.0.i.i, 0
  br i1 %14, label %20, label %_ZNK4llvm5APInteqEm.exit.thread

_ZNK4llvm5APInteqEm.exit.thread:                  ; preds = %_ZNK4llvm5APInt13getActiveBitsEv.exit.i, %_ZNK4llvm5APInteqEm.exit
  %15 = tail call { i64, i8 } @_ZNK4llvm10DataLayout17getTypeSizeInBitsEPNS_4TypeE(ptr noundef nonnull align 8 dereferenceable(512) %0, ptr noundef %3)
  %.fca.0.extract = extractvalue { i64, i8 } %15, 0
  %.fca.1.extract = extractvalue { i64, i8 } %15, 1
  store i64 %.fca.0.extract, ptr %6, align 8
  %.sroa.2.0..sroa_idx = getelementptr inbounds i8, ptr %6, i64 8
  store i8 %.fca.1.extract, ptr %.sroa.2.0..sroa_idx, align 8
  %16 = call noundef i64 @_ZNK4llvm8TypeSizecvmEv(ptr noundef nonnull align 8 dereferenceable(9) %6) #21
  %17 = trunc i64 %16 to i32
  %18 = call noundef i32 @_ZN4llvm11RISCVMatInt13getIntMatCostERKNS_5APIntEjRKNS_15MCSubtargetInfoEbb(ptr noundef nonnull align 8 dereferenceable(12) %2, i32 noundef %17, ptr noundef nonnull align 8 dereferenceable(288) %1, i1 noundef zeroext false, i1 noundef zeroext %4) #21
  %19 = sext i32 %18 to i64
  br label %20

20:                                               ; preds = %_ZNK4llvm5APInteqEm.exit, %_ZNK4llvm5APInteqEm.exit.thread
  %.sroa.0.0 = phi i64 [ %19, %_ZNK4llvm5APInteqEm.exit.thread ], [ 0, %_ZNK4llvm5APInteqEm.exit ]
  %.fca.0.insert = insertvalue { i64, i32 } poison, i64 %.sroa.0.0, 0
  %.fca.1.insert = insertvalue { i64, i32 } %.fca.0.insert, i32 0, 1
  ret { i64, i32 } %.fca.1.insert
}